; Function Attrs: mustprogress uwtable
define void @_ZN9grpc_core12experimental19AuditLoggerRegistry15RegisterFactoryESt10unique_ptrINS0_18AuditLoggerFactoryESt14default_deleteIS3_EE(ptr noundef %factory) local_unnamed_addr #5 align 2 personality ptr @__gxx_personality_v0 {
entry:
  %name = alloca %"class.std::basic_string_view", align 8
  %0 = load ptr, ptr %factory, align 8
  %cmp.i.i.not = icmp eq ptr %0, null
  br i1 %cmp.i.i.not, label %if.then, label %do.end

if.then:                                          ; preds = %entry
  tail call void @gpr_assertion_failed(ptr noundef nonnull @.str, i32 noundef 54, ptr noundef nonnull @.str.4) #17
  unreachable

do.end:                                           ; preds = %entry
  %1 = load ptr, ptr @_ZN9grpc_core12experimental19AuditLoggerRegistry2muE, align 8
  tail call void @_ZN4absl12lts_202308025Mutex4LockEv(ptr noundef nonnull align 8 dereferenceable(8) %1)
  %2 = load ptr, ptr %factory, align 8
  %vtable = load ptr, ptr %2, align 8
  %vfn = getelementptr inbounds i8, ptr %vtable, i64 16
  %3 = load ptr, ptr %vfn, align 8
  %call2 = invoke { i64, ptr } %3(ptr noundef nonnull align 8 dereferenceable(8) %2)
          to label %invoke.cont unwind label %lpad

invoke.cont:                                      ; preds = %do.end
  %4 = extractvalue { i64, ptr } %call2, 0
  store i64 %4, ptr %name, align 8
  %5 = getelementptr inbounds i8, ptr %name, i64 8
  %6 = extractvalue { i64, ptr } %call2, 1
  store ptr %6, ptr %5, align 8
  %7 = load ptr, ptr @_ZN9grpc_core12experimental19AuditLoggerRegistry8registryE, align 8
  %call5 = invoke { ptr, i8 } @_ZNSt3mapISt17basic_string_viewIcSt11char_traitsIcEESt10unique_ptrIN9grpc_core12experimental18AuditLoggerFactoryESt14default_deleteIS7_EESt4lessIS3_ESaISt4pairIKS3_SA_EEE7emplaceIJRS3_SA_EEESD_ISt17_Rb_tree_iteratorISF_EbEDpOT_(ptr noundef nonnull align 8 dereferenceable(48) %7, ptr noundef nonnull align 8 dereferenceable(16) %name, ptr noundef nonnull align 8 dereferenceable(8) %factory)
          to label %invoke.cont4 unwind label %lpad

invoke.cont4:                                     ; preds = %invoke.cont
  %8 = extractvalue { ptr, i8 } %call5, 1
  %9 = and i8 %8, 1
  %tobool.not = icmp eq i8 %9, 0
  br i1 %tobool.not, label %if.then7, label %do.end10

if.then7:                                         ; preds = %invoke.cont4
  invoke void @gpr_assertion_failed(ptr noundef nonnull @.str, i32 noundef 58, ptr noundef nonnull @.str.5) #17
          to label %invoke.cont8 unwind label %lpad

invoke.cont8:                                     ; preds = %if.then7
  unreachable

lpad:                                             ; preds = %if.then7, %invoke.cont, %do.end
  %10 = landingpad { ptr, i32 }
          cleanup
  invoke void @_ZN4absl12lts_202308025Mutex6UnlockEv(ptr noundef nonnull align 8 dereferenceable(8) %1)
          to label %_ZN4absl12lts_202308029MutexLockD2Ev.exit unwind label %terminate.lpad.i

terminate.lpad.i:                                 ; preds = %lpad
  %11 = landingpad { ptr, i32 }
          catch ptr null
  %12 = extractvalue { ptr, i32 } %11, 0
  call void @__clang_call_terminate(ptr %12) #19
  unreachable

_ZN4absl12lts_202308029MutexLockD2Ev.exit:        ; preds = %lpad
  resume { ptr, i32 } %10

do.end10:                                         ; preds = %invoke.cont4
  invoke void @_ZN4absl12lts_202308025Mutex6UnlockEv(ptr noundef nonnull align 8 dereferenceable(8) %1)
          to label %_ZN4absl12lts_202308029MutexLockD2Ev.exit2 unwind label %terminate.lpad.i1

terminate.lpad.i1:                                ; preds = %do.end10
  %13 = landingpad { ptr, i32 }
          catch ptr null
  %14 = extractvalue { ptr, i32 } %13, 0
  call void @__clang_call_terminate(ptr %14) #19
  unreachable

_ZN4absl12lts_202308029MutexLockD2Ev.exit2:       ; preds = %do.end10
  ret void
}